target datalayout = "e-m:e-p270:32:32-p271:32:32-p272:64:64-i64:64-i128:128-f80:128-n8:16:32:64-S128"
target triple = "x86_64-pc-linux-gnu"

; Function Attrs: nounwind sspstrong uwtable
define hidden i32 @FLAC__bitreader_read_utf8_uint32(ptr noundef %0, ptr noundef %1, ptr noundef %2, ptr noundef %3) #0 {
  %5 = alloca i32, align 4
  %6 = alloca ptr, align 8
  %7 = alloca ptr, align 8
  %8 = alloca ptr, align 8
  %9 = alloca ptr, align 8
  %10 = alloca i32, align 4
  %11 = alloca i32, align 4
  %12 = alloca i32, align 4
  %13 = alloca i32, align 4
  store ptr %0, ptr %6, align 8, !tbaa !3
  store ptr %1, ptr %7, align 8, !tbaa !33
  store ptr %2, ptr %8, align 8, !tbaa !36
  store ptr %3, ptr %9, align 8, !tbaa !33
  call void @llvm.lifetime.start.p0(i64 4, ptr %10) #10
  store i32 0, ptr %10, align 4, !tbaa !32
  call void @llvm.lifetime.start.p0(i64 4, ptr %11) #10
  call void @llvm.lifetime.start.p0(i64 4, ptr %12) #10
  %14 = load ptr, ptr %6, align 8, !tbaa !3
  %15 = call i32 @FLAC__bitreader_read_raw_uint32(ptr noundef %14, ptr noundef %11, i32 noundef 8)
  %16 = icmp ne i32 %15, 0
  br i1 %16, label %18, label %17

17:                                               ; preds = %4
  store i32 0, ptr %5, align 4
  store i32 1, ptr %13, align 4
  br label %122

18:                                               ; preds = %4
  %19 = load ptr, ptr %8, align 8, !tbaa !36
  %20 = icmp ne ptr %19, null
  br i1 %20, label %21, label %30

21:                                               ; preds = %18
  %22 = load i32, ptr %11, align 4, !tbaa !32
  %23 = trunc i32 %22 to i8
  %24 = load ptr, ptr %8, align 8, !tbaa !36
  %25 = load ptr, ptr %9, align 8, !tbaa !33
  %26 = load i32, ptr %25, align 4, !tbaa !32
  %27 = add i32 %26, 1
  store i32 %27, ptr %25, align 4, !tbaa !32
  %28 = zext i32 %26 to i64
  %29 = getelementptr inbounds nuw i8, ptr %24, i64 %28
  store i8 %23, ptr %29, align 1, !tbaa !43
  br label %30

30:                                               ; preds = %21, %18
  %31 = load i32, ptr %11, align 4, !tbaa !32
  %32 = and i32 %31, 128
  %33 = icmp ne i32 %32, 0
  br i1 %33, label %36, label %34

34:                                               ; preds = %30
  %35 = load i32, ptr %11, align 4, !tbaa !32
  store i32 %35, ptr %10, align 4, !tbaa !32
  store i32 0, ptr %12, align 4, !tbaa !32
  br label %78

36:                                               ; preds = %30
  %37 = load i32, ptr %11, align 4, !tbaa !32
  %38 = and i32 %37, 224
  %39 = icmp eq i32 %38, 192
  br i1 %39, label %40, label %43

40:                                               ; preds = %36
  %41 = load i32, ptr %11, align 4, !tbaa !32
  %42 = and i32 %41, 31
  store i32 %42, ptr %10, align 4, !tbaa !32
  store i32 1, ptr %12, align 4, !tbaa !32
  br label %77

43:                                               ; preds = %36
  %44 = load i32, ptr %11, align 4, !tbaa !32
  %45 = and i32 %44, 240
  %46 = icmp eq i32 %45, 224
  br i1 %46, label %47, label %50

47:                                               ; preds = %43
  %48 = load i32, ptr %11, align 4, !tbaa !32
  %49 = and i32 %48, 15
  store i32 %49, ptr %10, align 4, !tbaa !32
  store i32 2, ptr %12, align 4, !tbaa !32
  br label %76

50:                                               ; preds = %43
  %51 = load i32, ptr %11, align 4, !tbaa !32
  %52 = and i32 %51, 248
  %53 = icmp eq i32 %52, 240
  br i1 %53, label %54, label %57

54:                                               ; preds = %50
  %55 = load i32, ptr %11, align 4, !tbaa !32
  %56 = and i32 %55, 7
  store i32 %56, ptr %10, align 4, !tbaa !32
  store i32 3, ptr %12, align 4, !tbaa !32
  br label %75

57:                                               ; preds = %50
  %58 = load i32, ptr %11, align 4, !tbaa !32
  %59 = and i32 %58, 252
  %60 = icmp eq i32 %59, 248
  br i1 %60, label %61, label %64

61:                                               ; preds = %57
  %62 = load i32, ptr %11, align 4, !tbaa !32
  %63 = and i32 %62, 3
  store i32 %63, ptr %10, align 4, !tbaa !32
  store i32 4, ptr %12, align 4, !tbaa !32
  br label %74

64:                                               ; preds = %57
  %65 = load i32, ptr %11, align 4, !tbaa !32
  %66 = and i32 %65, 254
  %67 = icmp eq i32 %66, 252
  br i1 %67, label %68, label %71

68:                                               ; preds = %64
  %69 = load i32, ptr %11, align 4, !tbaa !32
  %70 = and i32 %69, 1
  store i32 %70, ptr %10, align 4, !tbaa !32
  store i32 5, ptr %12, align 4, !tbaa !32
  br label %73

71:                                               ; preds = %64
  %72 = load ptr, ptr %7, align 8, !tbaa !33
  store i32 -1, ptr %72, align 4, !tbaa !32
  store i32 1, ptr %5, align 4
  store i32 1, ptr %13, align 4
  br label %122

73:                                               ; preds = %68
  br label %74

74:                                               ; preds = %73, %61
  br label %75

75:                                               ; preds = %74, %54
  br label %76

76:                                               ; preds = %75, %47
  br label %77

77:                                               ; preds = %76, %40
  br label %78

78:                                               ; preds = %77, %34
  br label %79

79:                                               ; preds = %116, %78
  %80 = load i32, ptr %12, align 4, !tbaa !32
  %81 = icmp ne i32 %80, 0
  br i1 %81, label %82, label %119

82:                                               ; preds = %79
  %83 = load ptr, ptr %6, align 8, !tbaa !3
  %84 = call i32 @FLAC__bitreader_read_raw_uint32(ptr noundef %83, ptr noundef %11, i32 noundef 8)
  %85 = icmp ne i32 %84, 0
  br i1 %85, label %87, label %86

86:                                               ; preds = %82
  store i32 0, ptr %5, align 4
  store i32 1, ptr %13, align 4
  br label %122

87:                                               ; preds = %82
  %88 = load ptr, ptr %8, align 8, !tbaa !36
  %89 = icmp ne ptr %88, null
  br i1 %89, label %90, label %99

90:                                               ; preds = %87
  %91 = load i32, ptr %11, align 4, !tbaa !32
  %92 = trunc i32 %91 to i8
  %93 = load ptr, ptr %8, align 8, !tbaa !36
  %94 = load ptr, ptr %9, align 8, !tbaa !33
  %95 = load i32, ptr %94, align 4, !tbaa !32
  %96 = add i32 %95, 1
  store i32 %96, ptr %94, align 4, !tbaa !32
  %97 = zext i32 %95 to i64
  %98 = getelementptr inbounds nuw i8, ptr %93, i64 %97
  store i8 %92, ptr %98, align 1, !tbaa !43
  br label %99

99:                                               ; preds = %90, %87
  %100 = load i32, ptr %11, align 4, !tbaa !32
  %101 = and i32 %100, 128
  %102 = icmp ne i32 %101, 0
  br i1 %102, label %103, label %107

103:                                              ; preds = %99
  %104 = load i32, ptr %11, align 4, !tbaa !32
  %105 = and i32 %104, 64
  %106 = icmp ne i32 %105, 0
  br i1 %106, label %107, label %109

107:                                              ; preds = %103, %99
  %108 = load ptr, ptr %7, align 8, !tbaa !33
  store i32 -1, ptr %108, align 4, !tbaa !32
  store i32 1, ptr %5, align 4
  store i32 1, ptr %13, align 4
  br label %122

109:                                              ; preds = %103
  %110 = load i32, ptr %10, align 4, !tbaa !32
  %111 = shl i32 %110, 6
  store i32 %111, ptr %10, align 4, !tbaa !32
  %112 = load i32, ptr %11, align 4, !tbaa !32
  %113 = and i32 %112, 63
  %114 = load i32, ptr %10, align 4, !tbaa !32
  %115 = or i32 %114, %113
  store i32 %115, ptr %10, align 4, !tbaa !32
  br label %116

116:                                              ; preds = %109
  %117 = load i32, ptr %12, align 4, !tbaa !32
  %118 = add i32 %117, -1
  store i32 %118, ptr %12, align 4, !tbaa !32
  br label %79, !llvm.loop !56

119:                                              ; preds = %79
  %120 = load i32, ptr %10, align 4, !tbaa !32
  %121 = load ptr, ptr %7, align 8, !tbaa !33
  store i32 %120, ptr %121, align 4, !tbaa !32
  store i32 1, ptr %5, align 4
  store i32 1, ptr %13, align 4
  br label %122

122:                                              ; preds = %119, %107, %86, %71, %17
  call void @llvm.lifetime.end.p0(i64 4, ptr %12) #10
  call void @llvm.lifetime.end.p0(i64 4, ptr %11) #10
  call void @llvm.lifetime.end.p0(i64 4, ptr %10) #10
  %123 = load i32, ptr %5, align 4
  ret i32 %123
}