; Function Attrs: nounwind sspstrong uwtable
define hidden range(i32 0, 2) i32 @FLAC__bitreader_read_utf8_uint32(ptr noundef captures(none) %0, ptr noundef writeonly captures(none) %1, ptr noundef writeonly %2, ptr noundef captures(none) %3) local_unnamed_addr #9 {
  %5 = alloca i32, align 4
  call void @llvm.lifetime.start.p0(i64 4, ptr nonnull %5) #21
  %6 = call i32 @FLAC__bitreader_read_raw_uint32(ptr noundef %0, ptr noundef nonnull %5, i32 noundef 8)
  %.not = icmp eq i32 %6, 0
  br i1 %.not, label %.loopexit, label %7

7:                                                ; preds = %4
  %.not21 = icmp eq ptr %2, null
  %.pre = load i32, ptr %5, align 4, !tbaa !30
  br i1 %.not21, label %14, label %8

8:                                                ; preds = %7
  %9 = trunc i32 %.pre to i8
  %10 = load i32, ptr %3, align 4, !tbaa !30
  %11 = add i32 %10, 1
  store i32 %11, ptr %3, align 4, !tbaa !30
  %12 = zext i32 %10 to i64
  %13 = getelementptr inbounds nuw i8, ptr %2, i64 %12
  store i8 %9, ptr %13, align 1, !tbaa !36
  br label %14

14:                                               ; preds = %8, %7
  %15 = and i32 %.pre, 128
  %.not22 = icmp eq i32 %15, 0
  br i1 %.not22, label %.loopexit.sink.split, label %16

16:                                               ; preds = %14
  %17 = and i32 %.pre, 224
  %18 = icmp eq i32 %17, 192
  br i1 %18, label %.lr.ph, label %19

19:                                               ; preds = %16
  %20 = and i32 %.pre, 240
  %21 = icmp eq i32 %20, 224
  br i1 %21, label %.lr.ph, label %22

22:                                               ; preds = %19
  %23 = and i32 %.pre, 248
  %24 = icmp eq i32 %23, 240
  br i1 %24, label %.lr.ph, label %25

25:                                               ; preds = %22
  %26 = and i32 %.pre, 252
  %27 = icmp eq i32 %26, 248
  br i1 %27, label %.lr.ph, label %28

28:                                               ; preds = %25
  %29 = and i32 %.pre, 254
  %30 = icmp eq i32 %29, 252
  br i1 %30, label %.lr.ph, label %.loopexit.sink.split

.lr.ph:                                           ; preds = %28, %25, %22, %19, %16
  %.sink = phi i32 [ 31, %16 ], [ 15, %19 ], [ 7, %22 ], [ 3, %25 ], [ 1, %28 ]
  %.0.ph = phi i32 [ 1, %16 ], [ 2, %19 ], [ 3, %22 ], [ 4, %25 ], [ 5, %28 ]
  %31 = and i32 %.pre, %.sink
  br i1 %.not21, label %.lr.ph.split.us, label %.lr.ph.split

.lr.ph.split.us:                                  ; preds = %.lr.ph, %36
  %.131.us = phi i32 [ %40, %36 ], [ %.0.ph, %.lr.ph ]
  %.11730.us = phi i32 [ %39, %36 ], [ %31, %.lr.ph ]
  %32 = call i32 @FLAC__bitreader_read_raw_uint32(ptr noundef %0, ptr noundef nonnull %5, i32 noundef 8)
  %.not24.us = icmp eq i32 %32, 0
  br i1 %.not24.us, label %.loopexit, label %33

33:                                               ; preds = %.lr.ph.split.us
  %34 = load i32, ptr %5, align 4, !tbaa !30
  %35 = and i32 %34, 192
  %or.cond.us = icmp eq i32 %35, 128
  br i1 %or.cond.us, label %36, label %.loopexit.sink.split

36:                                               ; preds = %33
  %37 = shl i32 %.11730.us, 6
  %38 = and i32 %34, 63
  %39 = or disjoint i32 %38, %37
  %40 = add nsw i32 %.131.us, -1
  %.not23.us = icmp eq i32 %40, 0
  br i1 %.not23.us, label %.loopexit.sink.split, label %.lr.ph.split.us, !llvm.loop !48

.lr.ph.split:                                     ; preds = %.lr.ph, %50
  %.131 = phi i32 [ %54, %50 ], [ %.0.ph, %.lr.ph ]
  %.11730 = phi i32 [ %53, %50 ], [ %31, %.lr.ph ]
  %41 = call i32 @FLAC__bitreader_read_raw_uint32(ptr noundef %0, ptr noundef nonnull %5, i32 noundef 8)
  %.not24 = icmp eq i32 %41, 0
  br i1 %.not24, label %.loopexit, label %42

42:                                               ; preds = %.lr.ph.split
  %43 = load i32, ptr %5, align 4, !tbaa !30
  %44 = trunc i32 %43 to i8
  %45 = load i32, ptr %3, align 4, !tbaa !30
  %46 = add i32 %45, 1
  store i32 %46, ptr %3, align 4, !tbaa !30
  %47 = zext i32 %45 to i64
  %48 = getelementptr inbounds nuw i8, ptr %2, i64 %47
  store i8 %44, ptr %48, align 1, !tbaa !36
  %49 = and i32 %43, 192
  %or.cond = icmp eq i32 %49, 128
  br i1 %or.cond, label %50, label %.loopexit.sink.split

50:                                               ; preds = %42
  %51 = shl i32 %.11730, 6
  %52 = and i32 %43, 63
  %53 = or disjoint i32 %52, %51
  %54 = add nsw i32 %.131, -1
  %.not23 = icmp eq i32 %54, 0
  br i1 %.not23, label %.loopexit.sink.split, label %.lr.ph.split, !llvm.loop !48

.loopexit.sink.split:                             ; preds = %50, %42, %36, %33, %14, %28
  %.117.lcssa.sink = phi i32 [ -1, %28 ], [ %.pre, %14 ], [ -1, %33 ], [ %39, %36 ], [ -1, %42 ], [ %53, %50 ]
  store i32 %.117.lcssa.sink, ptr %1, align 4, !tbaa !30
  br label %.loopexit

.loopexit:                                        ; preds = %.lr.ph.split, %.lr.ph.split.us, %.loopexit.sink.split, %4
  %.018 = phi i32 [ 0, %4 ], [ 1, %.loopexit.sink.split ], [ 0, %.lr.ph.split.us ], [ 0, %.lr.ph.split ]
  call void @llvm.lifetime.end.p0(i64 4, ptr nonnull %5) #21
  ret i32 %.018
}